; Function Attrs: mustprogress null_pointer_is_valid sspstrong uwtable
define void @_ZN11CaptureFile8filePathEv(ptr dead_on_unwind noalias writable sret(%class.QString) align 8 initializes((0, 24)) %0, ptr noundef readonly align 8 captures(none) dereferenceable_or_null(48) %1) local_unnamed_addr #5 align 2 personality ptr @__gxx_personality_v0 {
  %3 = alloca %class.QString, align 8
  tail call void @llvm.memset.p0.i64(ptr noundef align 8 dereferenceable(24) dereferenceable_or_null(24) %0, i8 0, i64 24, i1 false)
  %4 = getelementptr inbounds nuw i8, ptr %1, i64 16
  %5 = load ptr, ptr %4, align 8
  %.not.i = icmp eq ptr %5, null
  br i1 %.not.i, label %_ZNK11CaptureFile7isValidEv.exit, label %6

6:                                                ; preds = %2
  %7 = getelementptr inbounds nuw i8, ptr %5, i64 8
  %8 = load i32, ptr %7, align 8
  %switch.i = icmp ult i32 %8, 2
  br i1 %switch.i, label %_ZNK11CaptureFile7isValidEv.exit, label %9

9:                                                ; preds = %6
  %10 = getelementptr inbounds nuw i8, ptr %5, i64 16
  %11 = load ptr, ptr %10, align 8
  %12 = invoke noalias ptr @g_filename_to_utf8(ptr noundef %11, i64 noundef -1, ptr noundef null, ptr noundef null, ptr noundef null)
          to label %13 unwind label %29

13:                                               ; preds = %9
  %.not = icmp eq ptr %12, null
  br i1 %.not, label %33, label %_ZN14QByteArrayViewC2IPcTnNSt9enable_ifIXsr9QtPrivate28IsCompatibleByteArrayPointerIT_EE5valueEbE4typeELb1EEERKS3_.exit

_ZN14QByteArrayViewC2IPcTnNSt9enable_ifIXsr9QtPrivate28IsCompatibleByteArrayPointerIT_EE5valueEbE4typeELb1EEERKS3_.exit: ; preds = %13
  call void @llvm.lifetime.start.p0(i64 24, ptr nonnull %3) #20
  %14 = tail call noundef i64 @strlen(ptr noundef nonnull dereferenceable(1) %12) #20
  invoke void @_ZN7QString8fromUtf8E14QByteArrayView(ptr dead_on_unwind nonnull writable sret(%class.QString) align 8 %3, i64 %14, ptr nonnull %12)
          to label %15 unwind label %31

15:                                               ; preds = %_ZN14QByteArrayViewC2IPcTnNSt9enable_ifIXsr9QtPrivate28IsCompatibleByteArrayPointerIT_EE5valueEbE4typeELb1EEERKS3_.exit
  %16 = load ptr, ptr %0, align 8
  %17 = load ptr, ptr %3, align 8
  store ptr %17, ptr %0, align 8
  store ptr %16, ptr %3, align 8
  %18 = getelementptr inbounds nuw i8, ptr %0, i64 8
  %19 = getelementptr inbounds nuw i8, ptr %3, i64 8
  %20 = load ptr, ptr %18, align 8
  %21 = load ptr, ptr %19, align 8
  store ptr %21, ptr %18, align 8
  store ptr %20, ptr %19, align 8
  %22 = getelementptr inbounds nuw i8, ptr %0, i64 16
  %23 = getelementptr inbounds nuw i8, ptr %3, i64 16
  %24 = load i64, ptr %22, align 8
  %25 = load i64, ptr %23, align 8
  store i64 %25, ptr %22, align 8
  store i64 %24, ptr %23, align 8
  %.not.i.i.i = icmp eq ptr %16, null
  br i1 %.not.i.i.i, label %_ZN7QStringD2Ev.exit, label %_ZN17QArrayDataPointerIDsE5derefEv.exit.i.i

_ZN17QArrayDataPointerIDsE5derefEv.exit.i.i:      ; preds = %15
  %26 = atomicrmw sub ptr %16, i32 1 seq_cst, align 4
  %.not.i.i = icmp eq i32 %26, 1
  br i1 %.not.i.i, label %27, label %_ZN7QStringD2Ev.exit

27:                                               ; preds = %_ZN17QArrayDataPointerIDsE5derefEv.exit.i.i
  %28 = load ptr, ptr %3, align 8
  call void @_ZN10QArrayData10deallocateEPS_xx(ptr noundef %28, i64 noundef 2, i64 noundef 8) #20
  br label %_ZN7QStringD2Ev.exit

_ZN7QStringD2Ev.exit:                             ; preds = %15, %_ZN17QArrayDataPointerIDsE5derefEv.exit.i.i, %27
  call void @llvm.lifetime.end.p0(i64 24, ptr nonnull %3) #20
  invoke void @g_free(ptr noundef nonnull %12)
          to label %_ZN7QStringD2Ev.exit9 unwind label %29

29:                                               ; preds = %_ZN7QStringD2Ev.exit, %9
  %30 = landingpad { ptr, i32 }
          cleanup
  br label %37

31:                                               ; preds = %_ZN14QByteArrayViewC2IPcTnNSt9enable_ifIXsr9QtPrivate28IsCompatibleByteArrayPointerIT_EE5valueEbE4typeELb1EEERKS3_.exit
  %32 = landingpad { ptr, i32 }
          cleanup
  call void @llvm.lifetime.end.p0(i64 24, ptr nonnull %3) #20
  br label %37

33:                                               ; preds = %13
  %34 = load ptr, ptr %0, align 8
  %.not.i.i.i6 = icmp eq ptr %34, null
  tail call void @llvm.memset.p0.i64(ptr noundef align 8 dereferenceable(24) %0, i8 0, i64 24, i1 false)
  br i1 %.not.i.i.i6, label %_ZN7QStringD2Ev.exit9, label %_ZN17QArrayDataPointerIDsE5derefEv.exit.i.i7

_ZN17QArrayDataPointerIDsE5derefEv.exit.i.i7:     ; preds = %33
  %35 = atomicrmw sub ptr %34, i32 1 seq_cst, align 4
  %.not.i.i8 = icmp eq i32 %35, 1
  br i1 %.not.i.i8, label %36, label %_ZN7QStringD2Ev.exit9

36:                                               ; preds = %_ZN17QArrayDataPointerIDsE5derefEv.exit.i.i7
  tail call void @_ZN10QArrayData10deallocateEPS_xx(ptr noundef nonnull %34, i64 noundef 2, i64 noundef 8) #20
  br label %_ZN7QStringD2Ev.exit9

37:                                               ; preds = %31, %29
  %.pn = phi { ptr, i32 } [ %30, %29 ], [ %32, %31 ]
  call void @_ZN7QStringD2Ev(ptr noundef align 8 dereferenceable_or_null(24) %0) #20
  resume { ptr, i32 } %.pn

_ZNK11CaptureFile7isValidEv.exit:                 ; preds = %6, %2
  tail call void @llvm.memset.p0.i64(ptr noundef align 8 dereferenceable(24) %0, i8 0, i64 24, i1 false)
  br label %_ZN7QStringD2Ev.exit9

_ZN7QStringD2Ev.exit9:                            ; preds = %_ZNK11CaptureFile7isValidEv.exit, %_ZN7QStringD2Ev.exit, %33, %_ZN17QArrayDataPointerIDsE5derefEv.exit.i.i7, %36
  ret void
}